target datalayout = "e-m:e-p270:32:32-p271:32:32-p272:64:64-i64:64-i128:128-f80:128-n8:16:32:64-S128"
target triple = "x86_64-pc-linux-gnu"

%"struct.glslang::TAttributeArgs" = type { i32, ptr }
%"struct.std::_List_iterator" = type { ptr }
%"class.std::__cxx11::_List_base.68" = type { %"struct.std::__cxx11::_List_base<glslang::TAttributeArgs, glslang::pool_allocator<glslang::TAttributeArgs>>::_List_impl" }
%"struct.std::__cxx11::_List_base<glslang::TAttributeArgs, glslang::pool_allocator<glslang::TAttributeArgs>>::_List_impl" = type { %"class.glslang::pool_allocator.69", %"struct.std::__detail::_List_node_header" }
%"class.glslang::pool_allocator.69" = type { ptr }
%"struct.std::__detail::_List_node_header" = type { %"struct.std::__detail::_List_node_base", i64 }
%"struct.std::__detail::_List_node_base" = type { ptr, ptr }
%"struct.std::__allocated_ptr" = type { ptr, ptr }
%"struct.std::_List_node" = type { %"struct.std::__detail::_List_node_base", %"struct.__gnu_cxx::__aligned_membuf" }
%"struct.__gnu_cxx::__aligned_membuf" = type { [16 x i8] }

; Function Attrs: mustprogress nounwind uwtable
define linkonce_odr noundef nonnull align 8 dereferenceable(96) ptr @_ZNK7glslang14pool_allocatorISt10_List_nodeINS_14TAttributeArgsEEE12getAllocatorEv(ptr noundef nonnull align 8 dereferenceable(8) %0) #0 comdat align 2 {
  %2 = alloca ptr, align 8
  store ptr %0, ptr %2, align 8
  %3 = load ptr, ptr %2, align 8
  %4 = getelementptr inbounds %"class.glslang::pool_allocator.69", ptr %3, i32 0, i32 0
  %5 = load ptr, ptr %4, align 8
  ret ptr %5
}

; Function Attrs: mustprogress nounwind uwtable
define linkonce_odr void @_ZNSt8__detail17_List_node_header7_M_initEv(ptr noundef nonnull align 8 dereferenceable(24) %0) #0 comdat align 2 {
  %2 = alloca ptr, align 8
  store ptr %0, ptr %2, align 8
  %3 = load ptr, ptr %2, align 8
  %4 = getelementptr inbounds %"struct.std::__detail::_List_node_base", ptr %3, i32 0, i32 1
  store ptr %3, ptr %4, align 8
  %5 = getelementptr inbounds %"struct.std::__detail::_List_node_base", ptr %3, i32 0, i32 0
  store ptr %3, ptr %5, align 8
  %6 = getelementptr inbounds %"struct.std::__detail::_List_node_header", ptr %3, i32 0, i32 1
  store i64 0, ptr %6, align 8
  ret void
}

; Function Attrs: mustprogress nounwind uwtable
define linkonce_odr void @_ZN7glslang14pool_allocatorISt10_List_nodeINS_14TAttributeArgsEEE10deallocateEPS3_m(ptr noundef nonnull align 8 dereferenceable(8) %0, ptr noundef %1, i64 noundef %2) #0 comdat align 2 {
  %4 = alloca ptr, align 8
  %5 = alloca ptr, align 8
  %6 = alloca i64, align 8
  store ptr %0, ptr %4, align 8
  store ptr %1, ptr %5, align 8
  store i64 %2, ptr %6, align 8
  ret void
}

; Function Attrs: mustprogress nounwind uwtable
define linkonce_odr noundef ptr @_ZN9__gnu_cxx16__aligned_membufIN7glslang14TAttributeArgsEE7_M_addrEv(ptr noundef nonnull align 8 dereferenceable(16) %0) #0 comdat align 2 {
  %2 = alloca ptr, align 8
  store ptr %0, ptr %2, align 8
  %3 = load ptr, ptr %2, align 8
  %4 = getelementptr inbounds %"struct.__gnu_cxx::__aligned_membuf", ptr %3, i32 0, i32 0
  ret ptr %4
}

; Function Attrs: mustprogress nounwind uwtable
define linkonce_odr noundef ptr @_ZN7glslang14pool_allocatorISt10_List_nodeINS_14TAttributeArgsEEE8allocateEm(ptr noundef nonnull align 8 dereferenceable(8) %0, i64 noundef %1) #0 comdat align 2 {
  %3 = alloca ptr, align 8
  %4 = alloca i64, align 8
  store ptr %0, ptr %3, align 8
  store i64 %1, ptr %4, align 8
  %5 = load ptr, ptr %3, align 8
  %6 = call noundef nonnull align 8 dereferenceable(96) ptr @_ZNK7glslang14pool_allocatorISt10_List_nodeINS_14TAttributeArgsEEE12getAllocatorEv(ptr noundef nonnull align 8 dereferenceable(8) %5)
  %7 = load i64, ptr %4, align 8
  %8 = mul i64 %7, 32
  %9 = call noundef ptr @_ZN7glslang14TPoolAllocator8allocateEm(ptr noundef nonnull align 8 dereferenceable(96) %6, i64 noundef %8)
  ret ptr %9
}

; Function Attrs: mustprogress nounwind uwtable
define linkonce_odr void @_ZNSt8__detail17_List_node_headerC2Ev(ptr noundef nonnull align 8 dereferenceable(24) %0) unnamed_addr #0 comdat align 2 {
  %2 = alloca ptr, align 8
  store ptr %0, ptr %2, align 8
  %3 = load ptr, ptr %2, align 8
  call void @_ZNSt8__detail17_List_node_header7_M_initEv(ptr noundef nonnull align 8 dereferenceable(24) %3) #7
  ret void
}

; Function Attrs: mustprogress nounwind uwtable
define linkonce_odr void @_ZN7glslang14pool_allocatorISt10_List_nodeINS_14TAttributeArgsEEEC2Ev(ptr noundef nonnull align 8 dereferenceable(8) %0) unnamed_addr #0 comdat align 2 {
  %2 = alloca ptr, align 8
  store ptr %0, ptr %2, align 8
  %3 = load ptr, ptr %2, align 8
  %4 = getelementptr inbounds %"class.glslang::pool_allocator.69", ptr %3, i32 0, i32 0
  %5 = call noundef nonnull align 8 dereferenceable(96) ptr @_ZN7glslang22GetThreadPoolAllocatorEv()
  store ptr %5, ptr %4, align 8
  ret void
}

; Function Attrs: mustprogress nounwind uwtable
define linkonce_odr void @_ZNSt16allocator_traitsIN7glslang14pool_allocatorISt10_List_nodeINS0_14TAttributeArgsEEEEE10deallocateERS5_PS4_m(ptr noundef nonnull align 8 dereferenceable(8) %0, ptr noundef %1, i64 noundef %2) #0 comdat align 2 {
  %4 = alloca ptr, align 8
  %5 = alloca ptr, align 8
  %6 = alloca i64, align 8
  store ptr %0, ptr %4, align 8
  store ptr %1, ptr %5, align 8
  store i64 %2, ptr %6, align 8
  %7 = load ptr, ptr %4, align 8
  %8 = load ptr, ptr %5, align 8
  %9 = load i64, ptr %6, align 8
  call void @_ZN7glslang14pool_allocatorISt10_List_nodeINS_14TAttributeArgsEEE10deallocateEPS3_m(ptr noundef nonnull align 8 dereferenceable(8) %7, ptr noundef %8, i64 noundef %9)
  ret void
}

; Function Attrs: mustprogress nounwind uwtable
define linkonce_odr void @_ZNSt16allocator_traitsIN7glslang14pool_allocatorISt10_List_nodeINS0_14TAttributeArgsEEEEE12_S_constructIS3_JRKS3_EEENSt9enable_ifIXsr6__and_ISt6__and_IJSt6__not_INS6_18__construct_helperIT_JDpT0_EE4typeEESt16is_constructibleISE_JSG_EEEEEE5valueEvE4typeERS5_PSE_DpOSF_(ptr noundef nonnull align 8 dereferenceable(8) %0, ptr noundef %1, ptr noundef nonnull align 8 dereferenceable(16) %2) #0 comdat align 2 {
  %4 = alloca ptr, align 8
  %5 = alloca ptr, align 8
  %6 = alloca ptr, align 8
  store ptr %0, ptr %4, align 8
  store ptr %1, ptr %5, align 8
  store ptr %2, ptr %6, align 8
  %7 = load ptr, ptr %5, align 8
  %8 = load ptr, ptr %6, align 8
  call void @llvm.memcpy.p0.p0.i64(ptr align 8 %7, ptr align 8 %8, i64 16, i1 false)
  ret void
}

; Function Attrs: mustprogress nounwind uwtable
define linkonce_odr noundef ptr @_ZN9__gnu_cxx16__aligned_membufIN7glslang14TAttributeArgsEE6_M_ptrEv(ptr noundef nonnull align 8 dereferenceable(16) %0) #0 comdat align 2 {
  %2 = alloca ptr, align 8
  store ptr %0, ptr %2, align 8
  %3 = load ptr, ptr %2, align 8
  %4 = call noundef ptr @_ZN9__gnu_cxx16__aligned_membufIN7glslang14TAttributeArgsEE7_M_addrEv(ptr noundef nonnull align 8 dereferenceable(16) %3) #7
  ret ptr %4
}

; Function Attrs: mustprogress nounwind uwtable
define linkonce_odr noundef ptr @_ZNSt16allocator_traitsIN7glslang14pool_allocatorISt10_List_nodeINS0_14TAttributeArgsEEEEE8allocateERS5_m(ptr noundef nonnull align 8 dereferenceable(8) %0, i64 noundef %1) #0 comdat align 2 {
  %3 = alloca ptr, align 8
  %4 = alloca i64, align 8
  store ptr %0, ptr %3, align 8
  store i64 %1, ptr %4, align 8
  %5 = load ptr, ptr %3, align 8
  %6 = load i64, ptr %4, align 8
  %7 = call noundef ptr @_ZN7glslang14pool_allocatorISt10_List_nodeINS_14TAttributeArgsEEE8allocateEm(ptr noundef nonnull align 8 dereferenceable(8) %5, i64 noundef %6)
  ret ptr %7
}

; Function Attrs: mustprogress nounwind uwtable
define linkonce_odr void @_ZNSt7__cxx1110_List_baseIN7glslang14TAttributeArgsENS1_14pool_allocatorIS2_EEE10_List_implC2Ev(ptr noundef nonnull align 8 dereferenceable(32) %0) unnamed_addr #0 comdat align 2 {
  %2 = alloca ptr, align 8
  store ptr %0, ptr %2, align 8
  %3 = load ptr, ptr %2, align 8
  call void @_ZN7glslang14pool_allocatorISt10_List_nodeINS_14TAttributeArgsEEEC2Ev(ptr noundef nonnull align 8 dereferenceable(8) %3)
  %4 = getelementptr inbounds %"struct.std::__cxx11::_List_base<glslang::TAttributeArgs, glslang::pool_allocator<glslang::TAttributeArgs>>::_List_impl", ptr %3, i32 0, i32 1
  call void @_ZNSt8__detail17_List_node_headerC2Ev(ptr noundef nonnull align 8 dereferenceable(24) %4) #7
  ret void
}

; Function Attrs: mustprogress nounwind uwtable
define linkonce_odr void @_ZNSt15__allocated_ptrIN7glslang14pool_allocatorISt10_List_nodeINS0_14TAttributeArgsEEEEED2Ev(ptr noundef nonnull align 8 dereferenceable(16) %0) unnamed_addr #0 comdat align 2 {
  %2 = alloca ptr, align 8
  store ptr %0, ptr %2, align 8
  %3 = load ptr, ptr %2, align 8
  %4 = getelementptr inbounds %"struct.std::__allocated_ptr", ptr %3, i32 0, i32 1
  %5 = load ptr, ptr %4, align 8
  %6 = icmp ne ptr %5, null
  br i1 %6, label %7, label %12

7:                                                ; preds = %1
  %8 = getelementptr inbounds %"struct.std::__allocated_ptr", ptr %3, i32 0, i32 0
  %9 = load ptr, ptr %8, align 8
  %10 = getelementptr inbounds %"struct.std::__allocated_ptr", ptr %3, i32 0, i32 1
  %11 = load ptr, ptr %10, align 8
  call void @_ZNSt16allocator_traitsIN7glslang14pool_allocatorISt10_List_nodeINS0_14TAttributeArgsEEEEE10deallocateERS5_PS4_m(ptr noundef nonnull align 8 dereferenceable(8) %9, ptr noundef %11, i64 noundef 1)
  br label %12

12:                                               ; preds = %7, %1
  ret void
}

; Function Attrs: mustprogress nounwind uwtable
define linkonce_odr noundef nonnull align 8 dereferenceable(16) ptr @_ZNSt15__allocated_ptrIN7glslang14pool_allocatorISt10_List_nodeINS0_14TAttributeArgsEEEEEaSEDn(ptr noundef nonnull align 8 dereferenceable(16) %0, ptr %1) #0 comdat align 2 {
  %3 = alloca ptr, align 8
  %4 = alloca ptr, align 8
  store ptr %0, ptr %3, align 8
  store ptr %1, ptr %4, align 8
  %5 = load ptr, ptr %3, align 8
  %6 = getelementptr inbounds %"struct.std::__allocated_ptr", ptr %5, i32 0, i32 1
  store ptr null, ptr %6, align 8
  ret ptr %5
}

; Function Attrs: mustprogress nounwind uwtable
define linkonce_odr void @_ZNSt16allocator_traitsIN7glslang14pool_allocatorISt10_List_nodeINS0_14TAttributeArgsEEEEE9constructIS3_JRKS3_EEEDTcl12_S_constructfp_fp0_spclsr3stdE7forwardIT0_Efp1_EEERS5_PT_DpOSA_(ptr noundef nonnull align 8 dereferenceable(8) %0, ptr noundef %1, ptr noundef nonnull align 8 dereferenceable(16) %2) #0 comdat align 2 {
  %4 = alloca ptr, align 8
  %5 = alloca ptr, align 8
  %6 = alloca ptr, align 8
  store ptr %0, ptr %4, align 8
  store ptr %1, ptr %5, align 8
  store ptr %2, ptr %6, align 8
  %7 = load ptr, ptr %4, align 8
  %8 = load ptr, ptr %5, align 8
  %9 = load ptr, ptr %6, align 8
  call void @_ZNSt16allocator_traitsIN7glslang14pool_allocatorISt10_List_nodeINS0_14TAttributeArgsEEEEE12_S_constructIS3_JRKS3_EEENSt9enable_ifIXsr6__and_ISt6__and_IJSt6__not_INS6_18__construct_helperIT_JDpT0_EE4typeEESt16is_constructibleISE_JSG_EEEEEE5valueEvE4typeERS5_PSE_DpOSF_(ptr noundef nonnull align 8 dereferenceable(8) %7, ptr noundef %8, ptr noundef nonnull align 8 dereferenceable(16) %9) #7
  ret void
}

; Function Attrs: mustprogress nounwind uwtable
define linkonce_odr noundef ptr @_ZNSt10_List_nodeIN7glslang14TAttributeArgsEE9_M_valptrEv(ptr noundef nonnull align 8 dereferenceable(32) %0) #0 comdat align 2 {
  %2 = alloca ptr, align 8
  store ptr %0, ptr %2, align 8
  %3 = load ptr, ptr %2, align 8
  %4 = getelementptr inbounds %"struct.std::_List_node", ptr %3, i32 0, i32 1
  %5 = call noundef ptr @_ZN9__gnu_cxx16__aligned_membufIN7glslang14TAttributeArgsEE6_M_ptrEv(ptr noundef nonnull align 8 dereferenceable(16) %4) #7
  ret ptr %5
}

; Function Attrs: mustprogress nounwind uwtable
define linkonce_odr void @_ZNSt15__allocated_ptrIN7glslang14pool_allocatorISt10_List_nodeINS0_14TAttributeArgsEEEEEC2ERS5_PS4_(ptr noundef nonnull align 8 dereferenceable(16) %0, ptr noundef nonnull align 8 dereferenceable(8) %1, ptr noundef %2) unnamed_addr #0 comdat align 2 {
  %4 = alloca ptr, align 8
  %5 = alloca ptr, align 8
  %6 = alloca ptr, align 8
  store ptr %0, ptr %4, align 8
  store ptr %1, ptr %5, align 8
  store ptr %2, ptr %6, align 8
  %7 = load ptr, ptr %4, align 8
  %8 = getelementptr inbounds %"struct.std::__allocated_ptr", ptr %7, i32 0, i32 0
  %9 = load ptr, ptr %5, align 8
  store ptr %9, ptr %8, align 8
  %10 = getelementptr inbounds %"struct.std::__allocated_ptr", ptr %7, i32 0, i32 1
  %11 = load ptr, ptr %6, align 8
  store ptr %11, ptr %10, align 8
  ret void
}

; Function Attrs: mustprogress nounwind uwtable
define linkonce_odr noundef nonnull align 8 dereferenceable(8) ptr @_ZNSt7__cxx1110_List_baseIN7glslang14TAttributeArgsENS1_14pool_allocatorIS2_EEE21_M_get_Node_allocatorEv(ptr noundef nonnull align 8 dereferenceable(32) %0) #0 comdat align 2 {
  %2 = alloca ptr, align 8
  store ptr %0, ptr %2, align 8
  %3 = load ptr, ptr %2, align 8
  %4 = getelementptr inbounds %"class.std::__cxx11::_List_base.68", ptr %3, i32 0, i32 0
  ret ptr %4
}

; Function Attrs: mustprogress nounwind uwtable
define linkonce_odr noundef ptr @_ZNSt7__cxx1110_List_baseIN7glslang14TAttributeArgsENS1_14pool_allocatorIS2_EEE11_M_get_nodeEv(ptr noundef nonnull align 8 dereferenceable(32) %0) #0 comdat align 2 {
  %2 = alloca ptr, align 8
  store ptr %0, ptr %2, align 8
  %3 = load ptr, ptr %2, align 8
  %4 = getelementptr inbounds %"class.std::__cxx11::_List_base.68", ptr %3, i32 0, i32 0
  %5 = call noundef ptr @_ZNSt16allocator_traitsIN7glslang14pool_allocatorISt10_List_nodeINS0_14TAttributeArgsEEEEE8allocateERS5_m(ptr noundef nonnull align 8 dereferenceable(8) %4, i64 noundef 1)
  ret ptr %5
}

; Function Attrs: mustprogress nounwind uwtable
define linkonce_odr void @_ZNSt7__cxx1110_List_baseIN7glslang14TAttributeArgsENS1_14pool_allocatorIS2_EEEC2Ev(ptr noundef nonnull align 8 dereferenceable(32) %0) unnamed_addr #0 comdat align 2 {
  %2 = alloca ptr, align 8
  store ptr %0, ptr %2, align 8
  %3 = load ptr, ptr %2, align 8
  %4 = getelementptr inbounds %"class.std::__cxx11::_List_base.68", ptr %3, i32 0, i32 0
  call void @_ZNSt7__cxx1110_List_baseIN7glslang14TAttributeArgsENS1_14pool_allocatorIS2_EEE10_List_implC2Ev(ptr noundef nonnull align 8 dereferenceable(32) %4)
  ret void
}

; Function Attrs: mustprogress nounwind uwtable
define linkonce_odr void @_ZNSt7__cxx1110_List_baseIN7glslang14TAttributeArgsENS1_14pool_allocatorIS2_EEE11_M_inc_sizeEm(ptr noundef nonnull align 8 dereferenceable(32) %0, i64 noundef %1) #0 comdat align 2 {
  %3 = alloca ptr, align 8
  %4 = alloca i64, align 8
  store ptr %0, ptr %3, align 8
  store i64 %1, ptr %4, align 8
  %5 = load ptr, ptr %3, align 8
  %6 = load i64, ptr %4, align 8
  %7 = getelementptr inbounds %"class.std::__cxx11::_List_base.68", ptr %5, i32 0, i32 0
  %8 = getelementptr inbounds %"struct.std::__cxx11::_List_base<glslang::TAttributeArgs, glslang::pool_allocator<glslang::TAttributeArgs>>::_List_impl", ptr %7, i32 0, i32 1
  %9 = getelementptr inbounds %"struct.std::__detail::_List_node_header", ptr %8, i32 0, i32 1
  %10 = load i64, ptr %9, align 8
  %11 = add i64 %10, %6
  store i64 %11, ptr %9, align 8
  ret void
}

; Function Attrs: mustprogress nounwind uwtable
define linkonce_odr noundef ptr @_ZNSt7__cxx114listIN7glslang14TAttributeArgsENS1_14pool_allocatorIS2_EEE14_M_create_nodeIJRKS2_EEEPSt10_List_nodeIS2_EDpOT_(ptr noundef nonnull align 8 dereferenceable(32) %0, ptr noundef nonnull align 8 dereferenceable(16) %1) #0 comdat align 2 {
  %3 = alloca ptr, align 8
  %4 = alloca ptr, align 8
  %5 = alloca ptr, align 8
  %6 = alloca ptr, align 8
  %7 = alloca %"struct.std::__allocated_ptr", align 8
  store ptr %0, ptr %3, align 8
  store ptr %1, ptr %4, align 8
  %8 = load ptr, ptr %3, align 8
  %9 = call noundef ptr @_ZNSt7__cxx1110_List_baseIN7glslang14TAttributeArgsENS1_14pool_allocatorIS2_EEE11_M_get_nodeEv(ptr noundef nonnull align 8 dereferenceable(32) %8)
  store ptr %9, ptr %5, align 8
  %10 = call noundef nonnull align 8 dereferenceable(8) ptr @_ZNSt7__cxx1110_List_baseIN7glslang14TAttributeArgsENS1_14pool_allocatorIS2_EEE21_M_get_Node_allocatorEv(ptr noundef nonnull align 8 dereferenceable(32) %8) #7
  store ptr %10, ptr %6, align 8
  %11 = load ptr, ptr %6, align 8
  %12 = load ptr, ptr %5, align 8
  call void @_ZNSt15__allocated_ptrIN7glslang14pool_allocatorISt10_List_nodeINS0_14TAttributeArgsEEEEEC2ERS5_PS4_(ptr noundef nonnull align 8 dereferenceable(16) %7, ptr noundef nonnull align 8 dereferenceable(8) %11, ptr noundef %12) #7
  %13 = load ptr, ptr %6, align 8
  %14 = load ptr, ptr %5, align 8
  %15 = call noundef ptr @_ZNSt10_List_nodeIN7glslang14TAttributeArgsEE9_M_valptrEv(ptr noundef nonnull align 8 dereferenceable(32) %14)
  %16 = load ptr, ptr %4, align 8
  call void @_ZNSt16allocator_traitsIN7glslang14pool_allocatorISt10_List_nodeINS0_14TAttributeArgsEEEEE9constructIS3_JRKS3_EEEDTcl12_S_constructfp_fp0_spclsr3stdE7forwardIT0_Efp1_EEERS5_PT_DpOSA_(ptr noundef nonnull align 8 dereferenceable(8) %13, ptr noundef %15, ptr noundef nonnull align 8 dereferenceable(16) %16) #7
  %17 = call noundef nonnull align 8 dereferenceable(16) ptr @_ZNSt15__allocated_ptrIN7glslang14pool_allocatorISt10_List_nodeINS0_14TAttributeArgsEEEEEaSEDn(ptr noundef nonnull align 8 dereferenceable(16) %7, ptr null) #7
  %18 = load ptr, ptr %5, align 8
  call void @_ZNSt15__allocated_ptrIN7glslang14pool_allocatorISt10_List_nodeINS0_14TAttributeArgsEEEEED2Ev(ptr noundef nonnull align 8 dereferenceable(16) %7) #7
  ret ptr %18
}

; Function Attrs: mustprogress nounwind uwtable
define linkonce_odr void @_ZNSt14_List_iteratorIN7glslang14TAttributeArgsEEC2EPNSt8__detail15_List_node_baseE(ptr noundef nonnull align 8 dereferenceable(8) %0, ptr noundef %1) unnamed_addr #0 comdat align 2 {
  %3 = alloca ptr, align 8
  %4 = alloca ptr, align 8
  store ptr %0, ptr %3, align 8
  store ptr %1, ptr %4, align 8
  %5 = load ptr, ptr %3, align 8
  %6 = getelementptr inbounds %"struct.std::_List_iterator", ptr %5, i32 0, i32 0
  %7 = load ptr, ptr %4, align 8
  store ptr %7, ptr %6, align 8
  ret void
}

; Function Attrs: mustprogress nounwind uwtable
define linkonce_odr void @_ZNSt7__cxx114listIN7glslang14TAttributeArgsENS1_14pool_allocatorIS2_EEEC2Ev(ptr noundef nonnull align 8 dereferenceable(32) %0) unnamed_addr #0 comdat align 2 {
  %2 = alloca ptr, align 8
  store ptr %0, ptr %2, align 8
  %3 = load ptr, ptr %2, align 8
  call void @_ZNSt7__cxx1110_List_baseIN7glslang14TAttributeArgsENS1_14pool_allocatorIS2_EEEC2Ev(ptr noundef nonnull align 8 dereferenceable(32) %3)
  ret void
}

; Function Attrs: mustprogress nounwind uwtable
define linkonce_odr void @_ZNSt7__cxx114listIN7glslang14TAttributeArgsENS1_14pool_allocatorIS2_EEE9_M_insertIJRKS2_EEEvSt14_List_iteratorIS2_EDpOT_(ptr noundef nonnull align 8 dereferenceable(32) %0, ptr %1, ptr noundef nonnull align 8 dereferenceable(16) %2) #0 comdat align 2 {
  %4 = alloca %"struct.std::_List_iterator", align 8
  %5 = alloca ptr, align 8
  %6 = alloca ptr, align 8
  %7 = alloca ptr, align 8
  %8 = getelementptr inbounds %"struct.std::_List_iterator", ptr %4, i32 0, i32 0
  store ptr %1, ptr %8, align 8
  store ptr %0, ptr %5, align 8
  store ptr %2, ptr %6, align 8
  %9 = load ptr, ptr %5, align 8
  %10 = load ptr, ptr %6, align 8
  %11 = call noundef ptr @_ZNSt7__cxx114listIN7glslang14TAttributeArgsENS1_14pool_allocatorIS2_EEE14_M_create_nodeIJRKS2_EEEPSt10_List_nodeIS2_EDpOT_(ptr noundef nonnull align 8 dereferenceable(32) %9, ptr noundef nonnull align 8 dereferenceable(16) %10)
  store ptr %11, ptr %7, align 8
  %12 = load ptr, ptr %7, align 8
  %13 = getelementptr inbounds %"struct.std::_List_iterator", ptr %4, i32 0, i32 0
  %14 = load ptr, ptr %13, align 8
  call void @_ZNSt8__detail15_List_node_base7_M_hookEPS0_(ptr noundef nonnull align 8 dereferenceable(16) %12, ptr noundef %14) #7
  call void @_ZNSt7__cxx1110_List_baseIN7glslang14TAttributeArgsENS1_14pool_allocatorIS2_EEE11_M_inc_sizeEm(ptr noundef nonnull align 8 dereferenceable(32) %9, i64 noundef 1)
  ret void
}

; Function Attrs: mustprogress nounwind uwtable
define linkonce_odr ptr @_ZNSt7__cxx114listIN7glslang14TAttributeArgsENS1_14pool_allocatorIS2_EEE3endEv(ptr noundef nonnull align 8 dereferenceable(32) %0) #0 comdat align 2 {
  %2 = alloca %"struct.std::_List_iterator", align 8
  %3 = alloca ptr, align 8
  store ptr %0, ptr %3, align 8
  %4 = load ptr, ptr %3, align 8
  %5 = getelementptr inbounds %"class.std::__cxx11::_List_base.68", ptr %4, i32 0, i32 0
  %6 = getelementptr inbounds %"struct.std::__cxx11::_List_base<glslang::TAttributeArgs, glslang::pool_allocator<glslang::TAttributeArgs>>::_List_impl", ptr %5, i32 0, i32 1
  call void @_ZNSt14_List_iteratorIN7glslang14TAttributeArgsEEC2EPNSt8__detail15_List_node_baseE(ptr noundef nonnull align 8 dereferenceable(8) %2, ptr noundef %6) #7
  %7 = getelementptr inbounds %"struct.std::_List_iterator", ptr %2, i32 0, i32 0
  %8 = load ptr, ptr %7, align 8
  ret ptr %8
}

; Function Attrs: mustprogress nounwind uwtable
define linkonce_odr void @_ZN7glslang5TListINS_14TAttributeArgsEEC2Ev(ptr noundef nonnull align 8 dereferenceable(32) %0) unnamed_addr #0 comdat align 2 {
  %2 = alloca ptr, align 8
  store ptr %0, ptr %2, align 8
  %3 = load ptr, ptr %2, align 8
  call void @_ZNSt7__cxx114listIN7glslang14TAttributeArgsENS1_14pool_allocatorIS2_EEEC2Ev(ptr noundef nonnull align 8 dereferenceable(32) %3)
  ret void
}

; Function Attrs: mustprogress nounwind uwtable
define linkonce_odr void @_ZNSt7__cxx114listIN7glslang14TAttributeArgsENS1_14pool_allocatorIS2_EEE9push_backERKS2_(ptr noundef nonnull align 8 dereferenceable(32) %0, ptr noundef nonnull align 8 dereferenceable(16) %1) #0 comdat align 2 {
  %3 = alloca ptr, align 8
  %4 = alloca ptr, align 8
  %5 = alloca %"struct.std::_List_iterator", align 8
  store ptr %0, ptr %3, align 8
  store ptr %1, ptr %4, align 8
  %6 = load ptr, ptr %3, align 8
  %7 = call ptr @_ZNSt7__cxx114listIN7glslang14TAttributeArgsENS1_14pool_allocatorIS2_EEE3endEv(ptr noundef nonnull align 8 dereferenceable(32) %6) #7
  %8 = getelementptr inbounds %"struct.std::_List_iterator", ptr %5, i32 0, i32 0
  store ptr %7, ptr %8, align 8
  %9 = load ptr, ptr %4, align 8
  %10 = getelementptr inbounds %"struct.std::_List_iterator", ptr %5, i32 0, i32 0
  %11 = load ptr, ptr %10, align 8
  call void @_ZNSt7__cxx114listIN7glslang14TAttributeArgsENS1_14pool_allocatorIS2_EEE9_M_insertIJRKS2_EEEvSt14_List_iteratorIS2_EDpOT_(ptr noundef nonnull align 8 dereferenceable(32) %6, ptr %11, ptr noundef nonnull align 8 dereferenceable(16) %9)
  ret void
}

; Function Attrs: mustprogress nounwind uwtable
define linkonce_odr noundef ptr @_ZN7glslang13NewPoolObjectINS_5TListINS_14TAttributeArgsEEEEEPT_S5_(ptr noundef %0) #0 comdat {
  %2 = alloca ptr, align 8
  store ptr %0, ptr %2, align 8
  %3 = call noundef nonnull align 8 dereferenceable(96) ptr @_ZN7glslang22GetThreadPoolAllocatorEv()
  %4 = call noundef ptr @_ZN7glslang14TPoolAllocator8allocateEm(ptr noundef nonnull align 8 dereferenceable(96) %3, i64 noundef 32)
  call void @_ZN7glslang5TListINS_14TAttributeArgsEEC2Ev(ptr noundef nonnull align 8 dereferenceable(32) %4)
  ret ptr %4
}

; Function Attrs: mustprogress nounwind uwtable
define noundef ptr @_ZNK7glslang13TParseContext14makeAttributesERKNSt7__cxx1112basic_stringIcSt11char_traitsIcENS_14pool_allocatorIcEEEE(ptr noundef nonnull align 8 dereferenceable(30232) %0, ptr noundef nonnull align 8 dereferenceable(40) %1) #0 align 2 {
  %3 = alloca ptr, align 8
  %4 = alloca ptr, align 8
  %5 = alloca ptr, align 8
  %6 = alloca %"struct.glslang::TAttributeArgs", align 8
  store ptr %0, ptr %3, align 8
  store ptr %1, ptr %4, align 8
  %7 = load ptr, ptr %3, align 8
  store ptr null, ptr %5, align 8
  %8 = load ptr, ptr %5, align 8
  %9 = call noundef ptr @_ZN7glslang13NewPoolObjectINS_5TListINS_14TAttributeArgsEEEEEPT_S5_(ptr noundef %8)
  store ptr %9, ptr %5, align 8
  %10 = getelementptr inbounds %"struct.glslang::TAttributeArgs", ptr %6, i32 0, i32 0
  %11 = load ptr, ptr %4, align 8
  %12 = call noundef i32 @_ZNK7glslang13TParseContext17attributeFromNameERKNSt7__cxx1112basic_stringIcSt11char_traitsIcENS_14pool_allocatorIcEEEE(ptr noundef nonnull align 8 dereferenceable(30232) %7, ptr noundef nonnull align 8 dereferenceable(40) %11)
  store i32 %12, ptr %10, align 8
  %13 = getelementptr inbounds %"struct.glslang::TAttributeArgs", ptr %6, i32 0, i32 1
  store ptr null, ptr %13, align 8
  %14 = load ptr, ptr %5, align 8
  call void @_ZNSt7__cxx114listIN7glslang14TAttributeArgsENS1_14pool_allocatorIS2_EEE9push_backERKS2_(ptr noundef nonnull align 8 dereferenceable(32) %14, ptr noundef nonnull align 8 dereferenceable(16) %6)
  %15 = load ptr, ptr %5, align 8
  ret ptr %15
}