; Function Attrs: mustprogress nounwind uwtable
define noundef ptr @_ZNK7glslang13TParseContext14makeAttributesERKNSt7__cxx1112basic_stringIcSt11char_traitsIcENS_14pool_allocatorIcEEEE(ptr nocapture noundef nonnull readnone align 8 dereferenceable(30232) %0, ptr noundef nonnull align 8 dereferenceable(40) %1) local_unnamed_addr #0 align 2 {
  %3 = tail call noundef nonnull align 8 dereferenceable(96) ptr @_ZN7glslang22GetThreadPoolAllocatorEv() #11
  %4 = tail call noundef ptr @_ZN7glslang14TPoolAllocator8allocateEm(ptr noundef nonnull align 8 dereferenceable(96) %3, i64 noundef 32) #11
  %5 = tail call noundef nonnull align 8 dereferenceable(96) ptr @_ZN7glslang22GetThreadPoolAllocatorEv() #11
  store ptr %5, ptr %4, align 8
  %6 = getelementptr inbounds i8, ptr %4, i64 8
  %7 = getelementptr inbounds i8, ptr %4, i64 16
  store ptr %6, ptr %7, align 8
  store ptr %6, ptr %6, align 8
  %8 = getelementptr inbounds i8, ptr %4, i64 24
  store i64 0, ptr %8, align 8
  %9 = tail call noundef i32 @_ZNK7glslang13TParseContext17attributeFromNameERKNSt7__cxx1112basic_stringIcSt11char_traitsIcENS_14pool_allocatorIcEEEE(ptr nonnull align 8 poison, ptr noundef nonnull align 8 dereferenceable(40) %1)
  %10 = load ptr, ptr %4, align 8
  %11 = tail call noundef ptr @_ZN7glslang14TPoolAllocator8allocateEm(ptr noundef nonnull align 8 dereferenceable(96) %10, i64 noundef 32) #11
  %12 = getelementptr inbounds i8, ptr %11, i64 16
  store i32 %9, ptr %12, align 8
  %.sroa.25.0..sroa_idx = getelementptr inbounds i8, ptr %11, i64 24
  store ptr null, ptr %.sroa.25.0..sroa_idx, align 8
  tail call void @_ZNSt8__detail15_List_node_base7_M_hookEPS0_(ptr noundef nonnull align 8 dereferenceable(16) %11, ptr noundef nonnull %6) #11
  %13 = load i64, ptr %8, align 8
  %14 = add i64 %13, 1
  store i64 %14, ptr %8, align 8
  ret ptr %4
}